; Function Attrs: mustprogress uwtable
define hidden noundef ptr @_ZN24fixed_bit_vector_manager9allocate0Ev(ptr noundef nonnull align 8 dereferenceable(540) %0) local_unnamed_addr #4 align 2 {
  %2 = getelementptr inbounds nuw i8, ptr %0, i64 524
  %3 = load i32, ptr %2, align 4, !tbaa !17
  %4 = icmp eq i32 %3, 0
  br i1 %4, label %5, label %7

5:                                                ; preds = %1
  %6 = getelementptr inbounds nuw i8, ptr %0, i64 536
  br label %_ZN24fixed_bit_vector_manager8allocateEv.exit

7:                                                ; preds = %1
  %8 = zext i32 %3 to i64
  %9 = tail call noundef ptr @_ZN22small_object_allocator8allocateEm(ptr noundef nonnull align 8 dereferenceable(540) %0, i64 noundef %8)
  %.pre = load i32, ptr %2, align 4, !tbaa !17
  %10 = zext i32 %.pre to i64
  br label %_ZN24fixed_bit_vector_manager8allocateEv.exit

_ZN24fixed_bit_vector_manager8allocateEv.exit:    ; preds = %5, %7
  %11 = phi i64 [ 0, %5 ], [ %10, %7 ]
  %.0.i = phi ptr [ %6, %5 ], [ %9, %7 ]
  tail call void @llvm.memset.p0.i64(ptr nonnull align 4 dereferenceable(4) %.0.i, i8 0, i64 %11, i1 false)
  ret ptr %.0.i
}